; Function Attrs: nounwind uwtable
define ptr @l_Lean_registerSimpleScopedEnvExtension___rarg(ptr noundef %0, ptr noundef %1) #2 {
  %3 = getelementptr inbounds nuw i8, ptr %0, i64 8
  %4 = load ptr, ptr %3, align 8, !tbaa !9
  %5 = ptrtoint ptr %4 to i64
  %6 = and i64 %5, 1
  %.not = icmp eq i64 %6, 0
  br i1 %.not, label %7, label %lean_inc.exit28

7:                                                ; preds = %2
  %.val.i = load i32, ptr %4, align 4, !tbaa !4
  %8 = icmp sgt i32 %.val.i, 0
  br i1 %8, label %9, label %11, !prof !11

9:                                                ; preds = %7
  %10 = add nuw i32 %.val.i, 1
  store i32 %10, ptr %4, align 4, !tbaa !4
  br label %lean_inc.exit28

11:                                               ; preds = %7
  %.not.i29 = icmp eq i32 %.val.i, 0
  br i1 %.not.i29, label %lean_inc.exit28, label %12

12:                                               ; preds = %11
  tail call void @lean_inc_ref_cold(ptr noundef nonnull %4) #7
  br label %lean_inc.exit28

lean_inc.exit28:                                  ; preds = %12, %11, %9, %2
  %13 = getelementptr inbounds nuw i8, ptr %0, i64 16
  %14 = load ptr, ptr %13, align 8, !tbaa !9
  %15 = ptrtoint ptr %14 to i64
  %16 = and i64 %15, 1
  %.not39 = icmp eq i64 %16, 0
  br i1 %.not39, label %17, label %lean_inc.exit27

17:                                               ; preds = %lean_inc.exit28
  %.val.i30 = load i32, ptr %14, align 4, !tbaa !4
  %18 = icmp sgt i32 %.val.i30, 0
  br i1 %18, label %19, label %21, !prof !11

19:                                               ; preds = %17
  %20 = add nuw i32 %.val.i30, 1
  store i32 %20, ptr %14, align 4, !tbaa !4
  br label %lean_inc.exit27

21:                                               ; preds = %17
  %.not.i31 = icmp eq i32 %.val.i30, 0
  br i1 %.not.i31, label %lean_inc.exit27, label %22

22:                                               ; preds = %21
  tail call void @lean_inc_ref_cold(ptr noundef nonnull %14) #7
  br label %lean_inc.exit27

lean_inc.exit27:                                  ; preds = %22, %21, %19, %lean_inc.exit28
  %23 = getelementptr inbounds nuw i8, ptr %0, i64 24
  %24 = load ptr, ptr %23, align 8, !tbaa !9
  %25 = ptrtoint ptr %24 to i64
  %26 = and i64 %25, 1
  %.not40 = icmp eq i64 %26, 0
  br i1 %.not40, label %27, label %lean_inc.exit26

27:                                               ; preds = %lean_inc.exit27
  %.val.i33 = load i32, ptr %24, align 4, !tbaa !4
  %28 = icmp sgt i32 %.val.i33, 0
  br i1 %28, label %29, label %31, !prof !11

29:                                               ; preds = %27
  %30 = add nuw i32 %.val.i33, 1
  store i32 %30, ptr %24, align 4, !tbaa !4
  br label %lean_inc.exit26

31:                                               ; preds = %27
  %.not.i34 = icmp eq i32 %.val.i33, 0
  br i1 %.not.i34, label %lean_inc.exit26, label %32

32:                                               ; preds = %31
  tail call void @lean_inc_ref_cold(ptr noundef nonnull %24) #7
  br label %lean_inc.exit26

lean_inc.exit26:                                  ; preds = %32, %31, %29, %lean_inc.exit27
  %33 = getelementptr inbounds nuw i8, ptr %0, i64 32
  %34 = load ptr, ptr %33, align 8, !tbaa !9
  %35 = ptrtoint ptr %34 to i64
  %36 = and i64 %35, 1
  %.not41 = icmp eq i64 %36, 0
  br i1 %.not41, label %37, label %lean_inc.exit

37:                                               ; preds = %lean_inc.exit26
  %.val.i36 = load i32, ptr %34, align 4, !tbaa !4
  %38 = icmp sgt i32 %.val.i36, 0
  br i1 %38, label %39, label %41, !prof !11

39:                                               ; preds = %37
  %40 = add nuw i32 %.val.i36, 1
  store i32 %40, ptr %34, align 4, !tbaa !4
  br label %lean_inc.exit

41:                                               ; preds = %37
  %.not.i37 = icmp eq i32 %.val.i36, 0
  br i1 %.not.i37, label %lean_inc.exit, label %42

42:                                               ; preds = %41
  tail call void @lean_inc_ref_cold(ptr noundef nonnull %34) #7
  br label %lean_inc.exit

lean_inc.exit:                                    ; preds = %42, %41, %39, %lean_inc.exit26
  %43 = ptrtoint ptr %0 to i64
  %44 = and i64 %43, 1
  %.not42 = icmp eq i64 %44, 0
  br i1 %.not42, label %45, label %lean_dec.exit

45:                                               ; preds = %lean_inc.exit
  %46 = load i32, ptr %0, align 4, !tbaa !4
  %47 = icmp sgt i32 %46, 1
  br i1 %47, label %48, label %50, !prof !11

48:                                               ; preds = %45
  %49 = add nsw i32 %46, -1
  store i32 %49, ptr %0, align 4, !tbaa !4
  br label %lean_dec.exit

50:                                               ; preds = %45
  %.not.i = icmp eq i32 %46, 0
  br i1 %.not.i, label %lean_dec.exit, label %51

51:                                               ; preds = %50
  tail call void @lean_dec_ref_cold(ptr noundef nonnull %0) #7
  br label %lean_dec.exit

lean_dec.exit:                                    ; preds = %51, %50, %48, %lean_inc.exit
  tail call void @lean_inc_heartbeat() #7
  %52 = tail call noalias ptr @mi_malloc_small(i64 noundef 32) #7
  %53 = icmp eq ptr %52, null
  br i1 %53, label %54, label %lean_alloc_closure.exit

54:                                               ; preds = %lean_dec.exit
  tail call void @lean_internal_panic_out_of_memory() #8
  unreachable

lean_alloc_closure.exit:                          ; preds = %lean_dec.exit
  %55 = getelementptr inbounds nuw i8, ptr %52, i64 4
  store i32 1, ptr %52, align 4, !tbaa !4
  store i32 -184549344, ptr %55, align 4
  %56 = getelementptr inbounds nuw i8, ptr %52, i64 8
  store ptr @l_EStateM_pure___rarg, ptr %56, align 8, !tbaa !9
  %57 = getelementptr inbounds nuw i8, ptr %52, i64 16
  store i16 2, ptr %57, align 8, !tbaa !14
  %58 = getelementptr inbounds nuw i8, ptr %52, i64 18
  store i16 1, ptr %58, align 2, !tbaa !14
  %59 = getelementptr inbounds nuw i8, ptr %52, i64 24
  store ptr %24, ptr %59, align 8, !tbaa !9
  %60 = load ptr, ptr @l_Lean_registerSimpleScopedEnvExtension___rarg___closed__1, align 8, !tbaa !9
  %61 = load ptr, ptr @l_Lean_ScopedEnvExtension_instInhabitedDescr___rarg___closed__4, align 8, !tbaa !9
  tail call void @lean_inc_heartbeat() #7
  %62 = tail call noalias ptr @mi_malloc_small(i64 noundef 56) #7
  %63 = icmp eq ptr %62, null
  br i1 %63, label %64, label %lean_alloc_ctor.exit

64:                                               ; preds = %lean_alloc_closure.exit
  tail call void @lean_internal_panic_out_of_memory() #8
  unreachable

lean_alloc_ctor.exit:                             ; preds = %lean_alloc_closure.exit
  %65 = getelementptr inbounds nuw i8, ptr %62, i64 4
  store i32 1, ptr %62, align 4, !tbaa !4
  store i32 393272, ptr %65, align 4
  %66 = getelementptr inbounds nuw i8, ptr %62, i64 8
  store ptr %4, ptr %66, align 8, !tbaa !9
  %67 = getelementptr inbounds nuw i8, ptr %62, i64 16
  store ptr %52, ptr %67, align 8, !tbaa !9
  %68 = getelementptr inbounds nuw i8, ptr %62, i64 24
  store ptr %60, ptr %68, align 8, !tbaa !9
  %69 = getelementptr inbounds nuw i8, ptr %62, i64 32
  store ptr %61, ptr %69, align 8, !tbaa !9
  %70 = getelementptr inbounds nuw i8, ptr %62, i64 40
  store ptr %14, ptr %70, align 8, !tbaa !9
  %71 = getelementptr inbounds nuw i8, ptr %62, i64 48
  store ptr %34, ptr %71, align 8, !tbaa !9
  %72 = tail call ptr @l_Lean_registerScopedEnvExtensionUnsafe___rarg(ptr noundef nonnull %62, ptr noundef %1)
  ret ptr %72
}